#include <math.h>
#include <stdio.h>
#include <stdlib.h>
#include <string.h>

int main()
{
    int n,i,k;
	scanf("%d",&n);
	int sz[100000];
	for(i=0;i<n;i++)
	{
		scanf("%d",&sz[i]);
	}
	scanf("%d",&k);
	int sum=0,N=n;
	for(i=0;i<N;i++)
	{
		if(sz[i]==k)
		{
			while(sz[i]==k)
			{
			    for(int j=i;j<n;j++)
				{
				    int c;
				    c=sz[j+1];
				    sz[j+1]=sz[j];
				    sz[j]=c;
				}
			    sum++;
			    N--;
			}
		}
	}
	for(i=0;i<n-sum;i++)
	{
		if(i==0)
		{
		    printf("%d",sz[i]);
		}
		else
		{
			printf(" %d",sz[i]);
		}
	}
	return 0;
}